target datalayout = "e-m:e-p270:32:32-p271:32:32-p272:64:64-i64:64-i128:128-f80:128-n8:16:32:64-S128"
target triple = "x86_64-pc-linux-gnu"

%struct.Io_MvMod_t_ = type { ptr, ptr, ptr, ptr, ptr, ptr, ptr, ptr, ptr, ptr, ptr, ptr, ptr, i32, ptr, ptr, ptr }
%struct.Vec_Ptr_t_ = type { i32, i32, ptr }

; Function Attrs: inlinehint nounwind uwtable
define internal ptr @Vec_PtrAlloc(i32 noundef %0) #4 {
  %2 = alloca i32, align 4
  %3 = alloca ptr, align 8
  store i32 %0, ptr %2, align 4, !tbaa !8
  call void @llvm.lifetime.start.p0(i64 8, ptr %3) #12
  %4 = call noalias ptr @malloc(i64 noundef 16) #14
  store ptr %4, ptr %3, align 8, !tbaa !52
  %5 = load i32, ptr %2, align 4, !tbaa !8
  %6 = icmp sgt i32 %5, 0
  br i1 %6, label %7, label %11

7:                                                ; preds = %1
  %8 = load i32, ptr %2, align 4, !tbaa !8
  %9 = icmp slt i32 %8, 8
  br i1 %9, label %10, label %11

10:                                               ; preds = %7
  store i32 8, ptr %2, align 4, !tbaa !8
  br label %11

11:                                               ; preds = %10, %7, %1
  %12 = load ptr, ptr %3, align 8, !tbaa !52
  %13 = getelementptr inbounds nuw %struct.Vec_Ptr_t_, ptr %12, i32 0, i32 1
  store i32 0, ptr %13, align 4, !tbaa !117
  %14 = load i32, ptr %2, align 4, !tbaa !8
  %15 = load ptr, ptr %3, align 8, !tbaa !52
  %16 = getelementptr inbounds nuw %struct.Vec_Ptr_t_, ptr %15, i32 0, i32 0
  store i32 %14, ptr %16, align 8, !tbaa !123
  %17 = load ptr, ptr %3, align 8, !tbaa !52
  %18 = getelementptr inbounds nuw %struct.Vec_Ptr_t_, ptr %17, i32 0, i32 0
  %19 = load i32, ptr %18, align 8, !tbaa !123
  %20 = icmp ne i32 %19, 0
  br i1 %20, label %21, label %28

21:                                               ; preds = %11
  %22 = load ptr, ptr %3, align 8, !tbaa !52
  %23 = getelementptr inbounds nuw %struct.Vec_Ptr_t_, ptr %22, i32 0, i32 0
  %24 = load i32, ptr %23, align 8, !tbaa !123
  %25 = sext i32 %24 to i64
  %26 = mul i64 8, %25
  %27 = call noalias ptr @malloc(i64 noundef %26) #14
  br label %29

28:                                               ; preds = %11
  br label %29

29:                                               ; preds = %28, %21
  %30 = phi ptr [ %27, %21 ], [ null, %28 ]
  %31 = load ptr, ptr %3, align 8, !tbaa !52
  %32 = getelementptr inbounds nuw %struct.Vec_Ptr_t_, ptr %31, i32 0, i32 2
  store ptr %30, ptr %32, align 8, !tbaa !119
  %33 = load ptr, ptr %3, align 8, !tbaa !52
  call void @llvm.lifetime.end.p0(i64 8, ptr %3) #12
  ret ptr %33
}

; Function Attrs: nounwind uwtable
define internal ptr @Io_MvModAlloc() #0 {
  %1 = alloca ptr, align 8
  call void @llvm.lifetime.start.p0(i64 8, ptr %1) #12
  %2 = call noalias ptr @malloc(i64 noundef 136) #14
  store ptr %2, ptr %1, align 8, !tbaa !59
  %3 = load ptr, ptr %1, align 8, !tbaa !59
  call void @llvm.memset.p0.i64(ptr align 8 %3, i8 0, i64 136, i1 false)
  %4 = call ptr @Vec_PtrAlloc(i32 noundef 512)
  %5 = load ptr, ptr %1, align 8, !tbaa !59
  %6 = getelementptr inbounds nuw %struct.Io_MvMod_t_, ptr %5, i32 0, i32 1
  store ptr %4, ptr %6, align 8, !tbaa !76
  %7 = call ptr @Vec_PtrAlloc(i32 noundef 512)
  %8 = load ptr, ptr %1, align 8, !tbaa !59
  %9 = getelementptr inbounds nuw %struct.Io_MvMod_t_, ptr %8, i32 0, i32 2
  store ptr %7, ptr %9, align 8, !tbaa !77
  %10 = call ptr @Vec_PtrAlloc(i32 noundef 512)
  %11 = load ptr, ptr %1, align 8, !tbaa !59
  %12 = getelementptr inbounds nuw %struct.Io_MvMod_t_, ptr %11, i32 0, i32 3
  store ptr %10, ptr %12, align 8, !tbaa !73
  %13 = call ptr @Vec_PtrAlloc(i32 noundef 512)
  %14 = load ptr, ptr %1, align 8, !tbaa !59
  %15 = getelementptr inbounds nuw %struct.Io_MvMod_t_, ptr %14, i32 0, i32 4
  store ptr %13, ptr %15, align 8, !tbaa !74
  %16 = call ptr @Vec_PtrAlloc(i32 noundef 512)
  %17 = load ptr, ptr %1, align 8, !tbaa !59
  %18 = getelementptr inbounds nuw %struct.Io_MvMod_t_, ptr %17, i32 0, i32 5
  store ptr %16, ptr %18, align 8, !tbaa !75
  %19 = call ptr @Vec_PtrAlloc(i32 noundef 512)
  %20 = load ptr, ptr %1, align 8, !tbaa !59
  %21 = getelementptr inbounds nuw %struct.Io_MvMod_t_, ptr %20, i32 0, i32 6
  store ptr %19, ptr %21, align 8, !tbaa !69
  %22 = call ptr @Vec_PtrAlloc(i32 noundef 512)
  %23 = load ptr, ptr %1, align 8, !tbaa !59
  %24 = getelementptr inbounds nuw %struct.Io_MvMod_t_, ptr %23, i32 0, i32 7
  store ptr %22, ptr %24, align 8, !tbaa !78
  %25 = call ptr @Vec_PtrAlloc(i32 noundef 512)
  %26 = load ptr, ptr %1, align 8, !tbaa !59
  %27 = getelementptr inbounds nuw %struct.Io_MvMod_t_, ptr %26, i32 0, i32 8
  store ptr %25, ptr %27, align 8, !tbaa !79
  %28 = call ptr @Vec_PtrAlloc(i32 noundef 512)
  %29 = load ptr, ptr %1, align 8, !tbaa !59
  %30 = getelementptr inbounds nuw %struct.Io_MvMod_t_, ptr %29, i32 0, i32 9
  store ptr %28, ptr %30, align 8, !tbaa !80
  %31 = call ptr @Vec_PtrAlloc(i32 noundef 512)
  %32 = load ptr, ptr %1, align 8, !tbaa !59
  %33 = getelementptr inbounds nuw %struct.Io_MvMod_t_, ptr %32, i32 0, i32 10
  store ptr %31, ptr %33, align 8, !tbaa !81
  %34 = call ptr @Vec_PtrAlloc(i32 noundef 512)
  %35 = load ptr, ptr %1, align 8, !tbaa !59
  %36 = getelementptr inbounds nuw %struct.Io_MvMod_t_, ptr %35, i32 0, i32 11
  store ptr %34, ptr %36, align 8, !tbaa !82
  %37 = call ptr @Vec_PtrAlloc(i32 noundef 512)
  %38 = load ptr, ptr %1, align 8, !tbaa !59
  %39 = getelementptr inbounds nuw %struct.Io_MvMod_t_, ptr %38, i32 0, i32 12
  store ptr %37, ptr %39, align 8, !tbaa !72
  %40 = load ptr, ptr %1, align 8, !tbaa !59
  call void @llvm.lifetime.end.p0(i64 8, ptr %1) #12
  ret ptr %40
}