; Function Attrs: mustprogress nofree nounwind willreturn memory(write, argmem: none, inaccessiblemem: readwrite) uwtable
define internal fastcc noalias noundef ptr @Io_MvModAlloc() unnamed_addr #15 {
  %calloc = tail call dereferenceable_or_null(136) ptr @calloc(i64 1, i64 136)
  %1 = tail call noalias dereferenceable_or_null(16) ptr @malloc(i64 noundef 16) #20
  %2 = getelementptr inbounds nuw i8, ptr %1, i64 4
  store i32 0, ptr %2, align 4, !tbaa !3
  store i32 512, ptr %1, align 8, !tbaa !9
  %3 = tail call noalias dereferenceable_or_null(4096) ptr @malloc(i64 noundef 4096) #20
  %4 = getelementptr inbounds nuw i8, ptr %1, i64 8
  store ptr %3, ptr %4, align 8, !tbaa !10
  %5 = getelementptr inbounds nuw i8, ptr %calloc, i64 8
  store ptr %1, ptr %5, align 8, !tbaa !51
  %6 = tail call noalias dereferenceable_or_null(16) ptr @malloc(i64 noundef 16) #20
  %7 = getelementptr inbounds nuw i8, ptr %6, i64 4
  store i32 0, ptr %7, align 4, !tbaa !3
  store i32 512, ptr %6, align 8, !tbaa !9
  %8 = tail call noalias dereferenceable_or_null(4096) ptr @malloc(i64 noundef 4096) #20
  %9 = getelementptr inbounds nuw i8, ptr %6, i64 8
  store ptr %8, ptr %9, align 8, !tbaa !10
  %10 = getelementptr inbounds nuw i8, ptr %calloc, i64 16
  store ptr %6, ptr %10, align 8, !tbaa !52
  %11 = tail call noalias dereferenceable_or_null(16) ptr @malloc(i64 noundef 16) #20
  %12 = getelementptr inbounds nuw i8, ptr %11, i64 4
  store i32 0, ptr %12, align 4, !tbaa !3
  store i32 512, ptr %11, align 8, !tbaa !9
  %13 = tail call noalias dereferenceable_or_null(4096) ptr @malloc(i64 noundef 4096) #20
  %14 = getelementptr inbounds nuw i8, ptr %11, i64 8
  store ptr %13, ptr %14, align 8, !tbaa !10
  %15 = getelementptr inbounds nuw i8, ptr %calloc, i64 24
  store ptr %11, ptr %15, align 8, !tbaa !48
  %16 = tail call noalias dereferenceable_or_null(16) ptr @malloc(i64 noundef 16) #20
  %17 = getelementptr inbounds nuw i8, ptr %16, i64 4
  store i32 0, ptr %17, align 4, !tbaa !3
  store i32 512, ptr %16, align 8, !tbaa !9
  %18 = tail call noalias dereferenceable_or_null(4096) ptr @malloc(i64 noundef 4096) #20
  %19 = getelementptr inbounds nuw i8, ptr %16, i64 8
  store ptr %18, ptr %19, align 8, !tbaa !10
  %20 = getelementptr inbounds nuw i8, ptr %calloc, i64 32
  store ptr %16, ptr %20, align 8, !tbaa !49
  %21 = tail call noalias dereferenceable_or_null(16) ptr @malloc(i64 noundef 16) #20
  %22 = getelementptr inbounds nuw i8, ptr %21, i64 4
  store i32 0, ptr %22, align 4, !tbaa !3
  store i32 512, ptr %21, align 8, !tbaa !9
  %23 = tail call noalias dereferenceable_or_null(4096) ptr @malloc(i64 noundef 4096) #20
  %24 = getelementptr inbounds nuw i8, ptr %21, i64 8
  store ptr %23, ptr %24, align 8, !tbaa !10
  %25 = getelementptr inbounds nuw i8, ptr %calloc, i64 40
  store ptr %21, ptr %25, align 8, !tbaa !50
  %26 = tail call noalias dereferenceable_or_null(16) ptr @malloc(i64 noundef 16) #20
  %27 = getelementptr inbounds nuw i8, ptr %26, i64 4
  store i32 0, ptr %27, align 4, !tbaa !3
  store i32 512, ptr %26, align 8, !tbaa !9
  %28 = tail call noalias dereferenceable_or_null(4096) ptr @malloc(i64 noundef 4096) #20
  %29 = getelementptr inbounds nuw i8, ptr %26, i64 8
  store ptr %28, ptr %29, align 8, !tbaa !10
  %30 = getelementptr inbounds nuw i8, ptr %calloc, i64 48
  store ptr %26, ptr %30, align 8, !tbaa !42
  %31 = tail call noalias dereferenceable_or_null(16) ptr @malloc(i64 noundef 16) #20
  %32 = getelementptr inbounds nuw i8, ptr %31, i64 4
  store i32 0, ptr %32, align 4, !tbaa !3
  store i32 512, ptr %31, align 8, !tbaa !9
  %33 = tail call noalias dereferenceable_or_null(4096) ptr @malloc(i64 noundef 4096) #20
  %34 = getelementptr inbounds nuw i8, ptr %31, i64 8
  store ptr %33, ptr %34, align 8, !tbaa !10
  %35 = getelementptr inbounds nuw i8, ptr %calloc, i64 56
  store ptr %31, ptr %35, align 8, !tbaa !53
  %36 = tail call noalias dereferenceable_or_null(16) ptr @malloc(i64 noundef 16) #20
  %37 = getelementptr inbounds nuw i8, ptr %36, i64 4
  store i32 0, ptr %37, align 4, !tbaa !3
  store i32 512, ptr %36, align 8, !tbaa !9
  %38 = tail call noalias dereferenceable_or_null(4096) ptr @malloc(i64 noundef 4096) #20
  %39 = getelementptr inbounds nuw i8, ptr %36, i64 8
  store ptr %38, ptr %39, align 8, !tbaa !10
  %40 = getelementptr inbounds nuw i8, ptr %calloc, i64 64
  store ptr %36, ptr %40, align 8, !tbaa !54
  %41 = tail call noalias dereferenceable_or_null(16) ptr @malloc(i64 noundef 16) #20
  %42 = getelementptr inbounds nuw i8, ptr %41, i64 4
  store i32 0, ptr %42, align 4, !tbaa !3
  store i32 512, ptr %41, align 8, !tbaa !9
  %43 = tail call noalias dereferenceable_or_null(4096) ptr @malloc(i64 noundef 4096) #20
  %44 = getelementptr inbounds nuw i8, ptr %41, i64 8
  store ptr %43, ptr %44, align 8, !tbaa !10
  %45 = getelementptr inbounds nuw i8, ptr %calloc, i64 72
  store ptr %41, ptr %45, align 8, !tbaa !55
  %46 = tail call noalias dereferenceable_or_null(16) ptr @malloc(i64 noundef 16) #20
  %47 = getelementptr inbounds nuw i8, ptr %46, i64 4
  store i32 0, ptr %47, align 4, !tbaa !3
  store i32 512, ptr %46, align 8, !tbaa !9
  %48 = tail call noalias dereferenceable_or_null(4096) ptr @malloc(i64 noundef 4096) #20
  %49 = getelementptr inbounds nuw i8, ptr %46, i64 8
  store ptr %48, ptr %49, align 8, !tbaa !10
  %50 = getelementptr inbounds nuw i8, ptr %calloc, i64 80
  store ptr %46, ptr %50, align 8, !tbaa !56
  %51 = tail call noalias dereferenceable_or_null(16) ptr @malloc(i64 noundef 16) #20
  %52 = getelementptr inbounds nuw i8, ptr %51, i64 4
  store i32 0, ptr %52, align 4, !tbaa !3
  store i32 512, ptr %51, align 8, !tbaa !9
  %53 = tail call noalias dereferenceable_or_null(4096) ptr @malloc(i64 noundef 4096) #20
  %54 = getelementptr inbounds nuw i8, ptr %51, i64 8
  store ptr %53, ptr %54, align 8, !tbaa !10
  %55 = getelementptr inbounds nuw i8, ptr %calloc, i64 88
  store ptr %51, ptr %55, align 8, !tbaa !57
  %56 = tail call noalias dereferenceable_or_null(16) ptr @malloc(i64 noundef 16) #20
  %57 = getelementptr inbounds nuw i8, ptr %56, i64 4
  store i32 0, ptr %57, align 4, !tbaa !3
  store i32 512, ptr %56, align 8, !tbaa !9
  %58 = tail call noalias dereferenceable_or_null(4096) ptr @malloc(i64 noundef 4096) #20
  %59 = getelementptr inbounds nuw i8, ptr %56, i64 8
  store ptr %58, ptr %59, align 8, !tbaa !10
  %60 = getelementptr inbounds nuw i8, ptr %calloc, i64 96
  store ptr %56, ptr %60, align 8, !tbaa !47
  ret ptr %calloc
}